target datalayout = "e-m:e-p270:32:32-p271:32:32-p272:64:64-i64:64-i128:128-f80:128-n8:16:32:64-S128"
target triple = "x86_64-pc-linux-gnu"

%"class.llvm::SmallVectorBase" = type { ptr, i32, i32 }
%"class.llvm::BitVector" = type <{ %"class.llvm::SmallVector.42", i32, [4 x i8] }>
%"class.llvm::SmallVector.42" = type { %"class.llvm::SmallVectorImpl.43", %"struct.llvm::SmallVectorStorage.46" }
%"class.llvm::SmallVectorImpl.43" = type { %"class.llvm::SmallVectorTemplateBase.44" }
%"class.llvm::SmallVectorTemplateBase.44" = type { %"class.llvm::SmallVectorTemplateCommon.45" }
%"class.llvm::SmallVectorTemplateCommon.45" = type { %"class.llvm::SmallVectorBase" }
%"struct.llvm::SmallVectorStorage.46" = type { [48 x i8] }
%"struct.(anonymous namespace)::StackColoring::BlockLifetimeInfo" = type { %"class.llvm::BitVector", %"class.llvm::BitVector", %"class.llvm::BitVector", %"class.llvm::BitVector" }

; Function Attrs: mustprogress nounwind uwtable
define linkonce_odr hidden noundef ptr @_ZNK4llvm25SmallVectorTemplateCommonImvE10getFirstElEv(ptr noundef nonnull align 8 dereferenceable(16) %0) #1 comdat align 2 {
  %2 = alloca ptr, align 8
  store ptr %0, ptr %2, align 8
  %3 = load ptr, ptr %2, align 8
  %4 = getelementptr inbounds i8, ptr %3, i64 16
  ret ptr %4
}

; Function Attrs: mustprogress nounwind uwtable
define linkonce_odr hidden noundef zeroext i1 @_ZNK4llvm25SmallVectorTemplateCommonImvE7isSmallEv(ptr noundef nonnull align 8 dereferenceable(16) %0) #1 comdat align 2 {
  %2 = alloca ptr, align 8
  store ptr %0, ptr %2, align 8
  %3 = load ptr, ptr %2, align 8
  %4 = getelementptr inbounds nuw %"class.llvm::SmallVectorBase", ptr %3, i32 0, i32 0
  %5 = load ptr, ptr %4, align 8
  %6 = call noundef ptr @_ZNK4llvm25SmallVectorTemplateCommonImvE10getFirstElEv(ptr noundef nonnull align 8 dereferenceable(16) %3)
  %7 = icmp eq ptr %5, %6
  ret i1 %7
}

; Function Attrs: mustprogress nounwind uwtable
define linkonce_odr hidden void @_ZN4llvm15SmallVectorImplImED2Ev(ptr noundef nonnull align 8 dereferenceable(16) %0) unnamed_addr #1 comdat align 2 {
  %2 = alloca ptr, align 8
  store ptr %0, ptr %2, align 8
  %3 = load ptr, ptr %2, align 8
  %4 = call noundef zeroext i1 @_ZNK4llvm25SmallVectorTemplateCommonImvE7isSmallEv(ptr noundef nonnull align 8 dereferenceable(16) %3)
  br i1 %4, label %7, label %5

5:                                                ; preds = %1
  %6 = call noundef ptr @_ZN4llvm25SmallVectorTemplateCommonImvE5beginEv(ptr noundef nonnull align 8 dereferenceable(16) %3)
  call void @free(ptr noundef %6) #2
  br label %7

7:                                                ; preds = %5, %1
  ret void
}

; Function Attrs: mustprogress nounwind uwtable
define linkonce_odr hidden void @_ZN4llvm23SmallVectorTemplateBaseImLb1EE13destroy_rangeEPmS2_(ptr noundef %0, ptr noundef %1) #1 comdat align 2 {
  %3 = alloca ptr, align 8
  %4 = alloca ptr, align 8
  store ptr %0, ptr %3, align 8
  store ptr %1, ptr %4, align 8
  ret void
}

; Function Attrs: mustprogress nounwind uwtable
define linkonce_odr hidden noundef ptr @_ZN4llvm25SmallVectorTemplateCommonImvE3endEv(ptr noundef nonnull align 8 dereferenceable(16) %0) #1 comdat align 2 {
  %2 = alloca ptr, align 8
  store ptr %0, ptr %2, align 8
  %3 = load ptr, ptr %2, align 8
  %4 = call noundef ptr @_ZN4llvm25SmallVectorTemplateCommonImvE5beginEv(ptr noundef nonnull align 8 dereferenceable(16) %3)
  %5 = call noundef i64 @_ZNK4llvm15SmallVectorBaseIjE4sizeEv(ptr noundef nonnull align 8 dereferenceable(16) %3)
  %6 = getelementptr inbounds i64, ptr %4, i64 %5
  ret ptr %6
}

; Function Attrs: mustprogress nounwind uwtable
define linkonce_odr hidden noundef ptr @_ZN4llvm25SmallVectorTemplateCommonImvE5beginEv(ptr noundef nonnull align 8 dereferenceable(16) %0) #1 comdat align 2 {
  %2 = alloca ptr, align 8
  store ptr %0, ptr %2, align 8
  %3 = load ptr, ptr %2, align 8
  %4 = getelementptr inbounds nuw %"class.llvm::SmallVectorBase", ptr %3, i32 0, i32 0
  %5 = load ptr, ptr %4, align 8
  ret ptr %5
}

; Function Attrs: mustprogress nounwind uwtable
define linkonce_odr hidden void @_ZN4llvm11SmallVectorImLj6EED2Ev(ptr noundef nonnull align 8 dereferenceable(64) %0) unnamed_addr #1 comdat align 2 {
  %2 = alloca ptr, align 8
  store ptr %0, ptr %2, align 8
  %3 = load ptr, ptr %2, align 8
  %4 = call noundef ptr @_ZN4llvm25SmallVectorTemplateCommonImvE5beginEv(ptr noundef nonnull align 8 dereferenceable(16) %3)
  %5 = call noundef ptr @_ZN4llvm25SmallVectorTemplateCommonImvE3endEv(ptr noundef nonnull align 8 dereferenceable(16) %3)
  call void @_ZN4llvm23SmallVectorTemplateBaseImLb1EE13destroy_rangeEPmS2_(ptr noundef %4, ptr noundef %5)
  call void @_ZN4llvm15SmallVectorImplImED2Ev(ptr noundef nonnull align 8 dereferenceable(16) %3) #2
  ret void
}

; Function Attrs: mustprogress nounwind uwtable
define linkonce_odr hidden void @_ZN4llvm9BitVectorD2Ev(ptr noundef nonnull align 8 dereferenceable(68) %0) unnamed_addr #1 comdat align 2 {
  %2 = alloca ptr, align 8
  store ptr %0, ptr %2, align 8
  %3 = load ptr, ptr %2, align 8
  %4 = getelementptr inbounds nuw %"class.llvm::BitVector", ptr %3, i32 0, i32 0
  call void @_ZN4llvm11SmallVectorImLj6EED2Ev(ptr noundef nonnull align 8 dereferenceable(64) %4) #2
  ret void
}

; Function Attrs: mustprogress nounwind uwtable
define internal void @_ZN12_GLOBAL__N_113StackColoring17BlockLifetimeInfoD2Ev(ptr noundef nonnull align 8 dereferenceable(288) %0) unnamed_addr #1 align 2 {
  %2 = alloca ptr, align 8
  store ptr %0, ptr %2, align 8
  %3 = load ptr, ptr %2, align 8
  %4 = getelementptr inbounds nuw %"struct.(anonymous namespace)::StackColoring::BlockLifetimeInfo", ptr %3, i32 0, i32 3
  call void @_ZN4llvm9BitVectorD2Ev(ptr noundef nonnull align 8 dereferenceable(68) %4) #2
  %5 = getelementptr inbounds nuw %"struct.(anonymous namespace)::StackColoring::BlockLifetimeInfo", ptr %3, i32 0, i32 2
  call void @_ZN4llvm9BitVectorD2Ev(ptr noundef nonnull align 8 dereferenceable(68) %5) #2
  %6 = getelementptr inbounds nuw %"struct.(anonymous namespace)::StackColoring::BlockLifetimeInfo", ptr %3, i32 0, i32 1
  call void @_ZN4llvm9BitVectorD2Ev(ptr noundef nonnull align 8 dereferenceable(68) %6) #2
  %7 = getelementptr inbounds nuw %"struct.(anonymous namespace)::StackColoring::BlockLifetimeInfo", ptr %3, i32 0, i32 0
  call void @_ZN4llvm9BitVectorD2Ev(ptr noundef nonnull align 8 dereferenceable(68) %7) #2
  ret void
}