; Function Attrs: mustprogress nounwind uwtable
define internal fastcc void @_ZN12_GLOBAL__N_113StackColoring17BlockLifetimeInfoD2Ev(ptr noundef nonnull align 8 dereferenceable(288) %0) unnamed_addr #0 align 2 {
  %2 = getelementptr inbounds nuw i8, ptr %0, i64 216
  %3 = tail call noundef i64 @_ZNK4llvm15SmallVectorBaseIjE4sizeEv(ptr noundef nonnull align 8 dereferenceable(68) %2) #20
  %4 = load ptr, ptr %2, align 8
  %5 = getelementptr inbounds nuw i8, ptr %0, i64 232
  %6 = icmp eq ptr %4, %5
  br i1 %6, label %_ZN4llvm9BitVectorD2Ev.exit, label %7

7:                                                ; preds = %1
  tail call void @free(ptr noundef %4) #20
  br label %_ZN4llvm9BitVectorD2Ev.exit

_ZN4llvm9BitVectorD2Ev.exit:                      ; preds = %1, %7
  %8 = getelementptr inbounds nuw i8, ptr %0, i64 144
  %9 = tail call noundef i64 @_ZNK4llvm15SmallVectorBaseIjE4sizeEv(ptr noundef nonnull align 8 dereferenceable(68) %8) #20
  %10 = load ptr, ptr %8, align 8
  %11 = getelementptr inbounds nuw i8, ptr %0, i64 160
  %12 = icmp eq ptr %10, %11
  br i1 %12, label %_ZN4llvm9BitVectorD2Ev.exit1, label %13

13:                                               ; preds = %_ZN4llvm9BitVectorD2Ev.exit
  tail call void @free(ptr noundef %10) #20
  br label %_ZN4llvm9BitVectorD2Ev.exit1

_ZN4llvm9BitVectorD2Ev.exit1:                     ; preds = %_ZN4llvm9BitVectorD2Ev.exit, %13
  %14 = getelementptr inbounds nuw i8, ptr %0, i64 72
  %15 = tail call noundef i64 @_ZNK4llvm15SmallVectorBaseIjE4sizeEv(ptr noundef nonnull align 8 dereferenceable(68) %14) #20
  %16 = load ptr, ptr %14, align 8
  %17 = getelementptr inbounds nuw i8, ptr %0, i64 88
  %18 = icmp eq ptr %16, %17
  br i1 %18, label %_ZN4llvm9BitVectorD2Ev.exit2, label %19

19:                                               ; preds = %_ZN4llvm9BitVectorD2Ev.exit1
  tail call void @free(ptr noundef %16) #20
  br label %_ZN4llvm9BitVectorD2Ev.exit2

_ZN4llvm9BitVectorD2Ev.exit2:                     ; preds = %_ZN4llvm9BitVectorD2Ev.exit1, %19
  %20 = tail call noundef i64 @_ZNK4llvm15SmallVectorBaseIjE4sizeEv(ptr noundef nonnull align 8 dereferenceable(68) %0) #20
  %21 = load ptr, ptr %0, align 8
  %22 = getelementptr inbounds nuw i8, ptr %0, i64 16
  %23 = icmp eq ptr %21, %22
  br i1 %23, label %_ZN4llvm9BitVectorD2Ev.exit3, label %24

24:                                               ; preds = %_ZN4llvm9BitVectorD2Ev.exit2
  tail call void @free(ptr noundef %21) #20
  br label %_ZN4llvm9BitVectorD2Ev.exit3

_ZN4llvm9BitVectorD2Ev.exit3:                     ; preds = %_ZN4llvm9BitVectorD2Ev.exit2, %24
  ret void
}